; Function Attrs: mustprogress uwtable
define dso_local void @_ZNSt3__113random_deviceC2ERKNS_12basic_stringIcNS_11char_traitsIcEENS_9allocatorIcEEEE(ptr noundef nonnull writeonly align 4 captures(none) dereferenceable(4) initializes((0, 4)) %0, ptr noundef nonnull align 8 dereferenceable(24) %1) unnamed_addr #0 align 2 personality ptr @__gxx_personality_v0 {
  %3 = alloca %"class.std::__1::basic_string", align 8
  %4 = load i8, ptr %1, align 8
  %5 = and i8 %4, 1
  %.not.i.i.i = icmp eq i8 %5, 0
  %6 = getelementptr inbounds nuw i8, ptr %1, i64 16
  %7 = load ptr, ptr %6, align 8
  %8 = getelementptr inbounds nuw i8, ptr %1, i64 1
  %9 = select i1 %.not.i.i.i, ptr %8, ptr %7
  %10 = tail call i32 (ptr, i32, ...) @open(ptr noundef %9, i32 noundef 0)
  store i32 %10, ptr %0, align 4, !tbaa !4
  %11 = icmp slt i32 %10, 0
  br i1 %11, label %12, label %30

12:                                               ; preds = %2
  %13 = tail call ptr @__errno_location() #11
  %14 = load i32, ptr %13, align 4, !tbaa !9
  call void @llvm.lifetime.start.p0(i64 24, ptr nonnull %3) #12
  call void @_ZNSt3__1plIcNS_11char_traitsIcEENS_9allocatorIcEEEENS_12basic_stringIT_T0_T1_EEPKS6_RKS9_(ptr dead_on_unwind nonnull writable sret(%"class.std::__1::basic_string") align 8 %3, ptr noundef nonnull @.str, ptr noundef nonnull align 8 dereferenceable(24) %1)
  %15 = load i8, ptr %3, align 8
  %16 = and i8 %15, 1
  %.not.i.i.i4 = icmp eq i8 %16, 0
  %17 = getelementptr inbounds nuw i8, ptr %3, i64 16
  %18 = load ptr, ptr %17, align 8
  %19 = getelementptr inbounds nuw i8, ptr %3, i64 1
  %20 = select i1 %.not.i.i.i4, ptr %19, ptr %18
  invoke void @_ZNSt3__120__throw_system_errorEiPKc(i32 noundef %14, ptr noundef %20) #13
          to label %21 unwind label %22

21:                                               ; preds = %12
  unreachable

22:                                               ; preds = %12
  %23 = landingpad { ptr, i32 }
          cleanup
  %24 = load i8, ptr %3, align 8
  %25 = and i8 %24, 1
  %.not.i = icmp eq i8 %25, 0
  br i1 %.not.i, label %_ZNSt3__112basic_stringIcNS_11char_traitsIcEENS_9allocatorIcEEED2Ev.exit, label %26

26:                                               ; preds = %22
  %27 = load ptr, ptr %17, align 8, !tbaa !10
  %28 = load i64, ptr %3, align 8
  %29 = and i64 %28, -2
  call void @_ZdlPvm(ptr noundef %27, i64 noundef %29) #14
  br label %_ZNSt3__112basic_stringIcNS_11char_traitsIcEENS_9allocatorIcEEED2Ev.exit

_ZNSt3__112basic_stringIcNS_11char_traitsIcEENS_9allocatorIcEEED2Ev.exit: ; preds = %22, %26
  call void @llvm.lifetime.end.p0(i64 24, ptr nonnull %3) #12
  resume { ptr, i32 } %23

30:                                               ; preds = %2
  ret void
}